Certificate:
    Data:
        Version: 3 (0x2)
        Serial Number: 1 (0x1)
    Signature Algorithm: sha512WithRSAEncryption
        Issuer: C=US, ST=CO, L=Brighton, O=memoryoracle, OU=memoryoracle, CN=memoryoracle CA/name=memoryoracle/emailAddress=daniel.noland@gmail.com
        Validity
            Not Before: Sep 14 20:25:54 2015 GMT
            Not After : Dec 13 20:25:54 2015 GMT
        Subject: C=US, ST=CO, L=Brighton, O=memoryoracle, OU=memoryoracle, CN=navi.dnoland.com/name=morunner/emailAddress=daniel.noland@gmail.com
        Subject Public Key Info:
            Public Key Algorithm: rsaEncryption
                Public-Key: (4096 bit)
                Modulus:
                    00:df:1f:a8:20:43:ee:1d:21:aa:91:7e:3a:fa:97:
                    c7:f3:68:d4:4b:cb:dd:1a:42:4b:6b:92:e1:69:11:
                    94:4c:ae:e6:da:19:f7:d9:85:c5:e5:ce:1e:8e:d5:
                    1b:38:c7:7a:6c:56:62:f0:be:b6:1f:13:44:16:32:
                    db:36:0c:f2:c0:66:5d:99:f6:1a:bb:57:c4:48:a6:
                    34:40:09:e4:09:59:93:82:66:20:3c:33:4c:ee:82:
                    60:cd:ba:63:24:d9:75:9d:7a:ae:88:67:64:ec:88:
                    b8:f0:15:ab:16:5e:2c:5a:1f:60:70:15:74:56:13:
                    4d:7a:ac:f5:47:fb:b0:04:ae:ab:58:2e:bb:c0:cf:
                    26:2b:d5:5c:0e:e6:31:f4:57:25:4e:36:06:2c:ab:
                    a6:c4:0c:9a:bb:50:1b:86:92:c6:f1:72:56:00:5b:
                    9c:46:36:99:e5:92:50:96:5c:ec:c6:c2:69:0e:cd:
                    af:2d:e4:13:c1:57:98:e4:45:8f:55:58:f9:22:d4:
                    75:b5:45:2b:d8:39:8c:20:87:bc:cf:66:fb:09:af:
                    31:75:25:e5:b5:cd:ed:a7:f1:3c:b8:97:a1:06:30:
                    7d:0d:8a:36:e2:61:83:c3:a2:c6:ec:11:49:22:02:
                    f1:24:75:06:ec:61:22:4e:25:fe:bf:96:87:57:a9:
                    28:97:2f:51:71:91:54:e3:79:4e:7f:14:ff:58:27:
                    6f:a1:19:8f:4d:5d:a4:2d:e8:47:4a:bf:37:dd:05:
                    65:a3:81:32:92:15:a3:86:6b:5a:d2:65:3e:31:2d:
                    9c:d2:20:57:22:d0:ba:d8:6b:ed:22:55:06:86:ff:
                    72:8b:b2:32:a3:30:7a:a3:5e:63:9a:e4:d0:be:5a:
                    dd:6e:98:97:61:73:94:74:0e:f9:9b:4f:c1:52:fe:
                    81:2b:49:4a:b0:12:1f:5f:8e:56:33:46:f4:51:64:
                    3a:6a:06:22:48:d0:46:c4:0a:41:60:ed:e2:f2:78:
                    4e:c3:df:a2:a8:e5:ee:c4:3e:cc:59:7b:9e:94:f5:
                    80:0a:8f:56:9b:d5:22:28:96:23:4d:05:d1:1a:ac:
                    91:67:44:6d:28:ab:0b:29:a5:cc:ee:5e:5f:08:95:
                    b0:dc:5e:c7:1d:78:22:72:aa:3b:55:b5:9d:bf:66:
                    53:04:12:d9:4b:c2:fe:80:bb:3e:ac:45:9f:f1:2f:
                    fa:08:2d:3f:95:ee:32:6f:8d:99:8e:89:ba:6c:83:
                    70:b1:30:bc:39:36:41:8c:db:46:85:e4:57:f2:ce:
                    09:5e:22:74:c7:6e:67:39:62:1b:f2:58:5e:1a:0a:
                    96:fd:6d:9e:52:14:a8:52:74:ed:fd:a0:dd:38:2c:
                    56:3d:41
                Exponent: 65537 (0x10001)
        X509v3 extensions:
            X509v3 Basic Constraints: 
                CA:FALSE
            Netscape Cert Type: 
                SSL Server
            Netscape Comment: 
                MemoryOracle Generated Server Certificate
            X509v3 Subject Key Identifier: 
                EB:2C:3F:02:09:5B:72:9F:05:D9:CC:94:B8:F5:8D:2F:6E:EB:8C:87
            X509v3 Authority Key Identifier: 
                keyid:62:F7:F4:32:30:15:56:EA:03:BE:BE:DA:37:6F:5D:9C:3B:CF:86:A6
                DirName:/C=US/ST=CO/L=Brighton/O=memoryoracle/OU=memoryoracle/CN=memoryoracle CA/name=memoryoracle/emailAddress=daniel.noland@gmail.com
                serial:F3:58:B3:60:95:83:28:BF

            X509v3 Extended Key Usage: 
                TLS Web Server Authentication
            X509v3 Key Usage: 
                Digital Signature, Key Encipherment
    Signature Algorithm: sha512WithRSAEncryption
         4c:07:56:cc:8d:bb:42:da:82:4e:80:47:0a:ce:ae:59:82:5a:
         78:59:89:57:f2:3a:5f:5d:04:ca:cb:7a:7f:d4:73:5c:a9:2b:
         fe:14:cf:0b:e5:c7:1e:61:e5:f1:85:75:00:ff:36:8f:d1:b3:
         93:f5:ad:a2:8e:6f:0b:6b:35:8d:92:ea:26:b8:a0:6c:fb:77:
         fd:0b:a9:06:16:ff:a5:0c:21:66:ea:17:f0:64:55:ba:12:b4:
         c7:15:5a:e8:f2:97:1b:85:72:1c:5f:93:18:c0:c9:c8:0a:a7:
         30:66:02:a2:47:8c:90:3a:3e:68:9b:67:1b:bc:8a:72:01:1c:
         46:72:f3:d2:c0:3c:7d:cb:aa:0a:51:d7:25:47:a3:19:be:27:
         81:a6:d3:16:52:7d:fe:57:d8:2d:68:a3:7c:c4:94:f9:3a:5d:
         5a:99:e5:f9:3a:4d:b1:9f:3e:fb:aa:ff:18:62:16:d2:2a:7d:
         89:e1:07:63:0b:cb:28:ba:8c:c1:f9:54:32:b0:36:52:18:aa:
         d3:ac:05:6a:51:2f:03:cd:13:60:2f:a0:27:0c:1e:09:21:82:
         48:fc:f5:55:ec:8c:ac:83:93:a1:66:56:ca:d7:e2:c9:af:18:
         16:65:69:fd:cb:8c:cd:02:6f:15:ee:19:7a:00:b9:27:c6:d0:
         be:86:d7:cb:1e:37:56:1a:a8:87:93:5d:d1:5a:c5:97:da:9e:
         35:26:38:4a:1a:7c:ed:fa:48:09:55:00:e5:8b:7c:4d:cf:73:
         de:15:f2:aa:13:02:f7:b7:ed:66:20:64:6a:a9:0d:ee:98:80:
         78:1e:0c:e4:67:8f:5f:79:e6:ce:09:3c:5f:ac:72:7a:12:00:
         4d:64:3d:1c:2c:65:00:c8:1b:4b:8e:cd:29:31:b7:5f:e4:1d:
         25:93:2c:80:1e:a1:30:f9:20:bd:08:a6:49:3e:47:bb:b9:c9:
         4a:cc:70:39:c9:28:55:d3:69:26:4b:b9:f3:ab:91:03:a0:bb:
         ec:51:0c:2e:ad:55:38:31:37:2b:a2:57:92:bd:53:65:a8:bd:
         14:f7:77:e1:d5:3a:67:56:e2:ce:05:d7:8b:c9:31:81:3b:92:
         a7:b7:7d:05:e1:c6:52:b4:1d:91:e1:1e:6c:04:ed:f7:a2:56:
         96:fd:c4:ed:02:8f:0f:8a:78:22:18:86:10:63:88:04:95:c5:
         a7:9a:21:fb:46:ac:b2:e9:f8:87:15:9b:af:f6:a8:07:75:31:
         3b:e3:dd:a4:85:93:d7:9a:d5:17:da:1f:6d:f0:b4:2e:19:21:
         ad:dc:6d:e1:51:f2:d9:27:8a:3a:67:1f:59:33:4c:76:d8:9b:
         ef:20:07:2d:69:a8:b6:a3
-----BEGIN CERTIFICATE-----
MIIHbTCCBVWgAwIBAgIBATANBgkqhkiG9w0BAQ0FADCBtDELMAkGA1UEBhMCVVMx
CzAJBgNVBAgTAkNPMREwDwYDVQQHEwhCcmlnaHRvbjEVMBMGA1UEChMMbWVtb3J5
b3JhY2xlMRUwEwYDVQQLEwxtZW1vcnlvcmFjbGUxGDAWBgNVBAMTD21lbW9yeW9y
YWNsZSBDQTEVMBMGA1UEKRMMbWVtb3J5b3JhY2xlMSYwJAYJKoZIhvcNAQkBFhdk
YW5pZWwubm9sYW5kQGdtYWlsLmNvbTAeFw0xNTA5MTQyMDI1NTRaFw0xNTEyMTMy
MDI1NTRaMIGxMQswCQYDVQQGEwJVUzELMAkGA1UECBMCQ08xETAPBgNVBAcTCEJy
aWdodG9uMRUwEwYDVQQKEwxtZW1vcnlvcmFjbGUxFTATBgNVBAsTDG1lbW9yeW9y
YWNsZTEZMBcGA1UEAxMQbmF2aS5kbm9sYW5kLmNvbTERMA8GA1UEKRMIbW9ydW5u
ZXIxJjAkBgkqhkiG9w0BCQEWF2RhbmllbC5ub2xhbmRAZ21haWwuY29tMIICIjAN
BgkqhkiG9w0BAQEFAAOCAg8AMIICCgKCAgEA3x+oIEPuHSGqkX46+pfH82jUS8vd
GkJLa5LhaRGUTK7m2hn32YXF5c4ejtUbOMd6bFZi8L62HxNEFjLbNgzywGZdmfYa
u1fESKY0QAnkCVmTgmYgPDNM7oJgzbpjJNl1nXquiGdk7Ii48BWrFl4sWh9gcBV0
VhNNeqz1R/uwBK6rWC67wM8mK9VcDuYx9FclTjYGLKumxAyau1AbhpLG8XJWAFuc
RjaZ5ZJQllzsxsJpDs2vLeQTwVeY5EWPVVj5ItR1tUUr2DmMIIe8z2b7Ca8xdSXl
tc3tp/E8uJehBjB9DYo24mGDw6LG7BFJIgLxJHUG7GEiTiX+v5aHV6koly9RcZFU
43lOfxT/WCdvoRmPTV2kLehHSr833QVlo4EykhWjhmta0mU+MS2c0iBXItC62Gvt
IlUGhv9yi7IyozB6o15jmuTQvlrdbpiXYXOUdA75m0/BUv6BK0lKsBIfX45WM0b0
UWQ6agYiSNBGxApBYO3i8nhOw9+iqOXuxD7MWXuelPWACo9Wm9UiKJYjTQXRGqyR
Z0RtKKsLKaXM7l5fCJWw3F7HHXgicqo7VbWdv2ZTBBLZS8L+gLs+rEWf8S/6CC0/
le4yb42Zjom6bINwsTC8OTZBjNtGheRX8s4JXiJ0x25nOWIb8lheGgqW/W2eUhSo
UnTt/aDdOCxWPUECAwEAAaOCAYkwggGFMAkGA1UdEwQCMAAwEQYJYIZIAYb4QgEB
BAQDAgZAMDgGCWCGSAGG+EIBDQQrFilNZW1vcnlPcmFjbGUgR2VuZXJhdGVkIFNl
cnZlciBDZXJ0aWZpY2F0ZTAdBgNVHQ4EFgQU6yw/Aglbcp8F2cyUuPWNL27rjIcw
gekGA1UdIwSB4TCB3oAUYvf0MjAVVuoDvr7aN29dnDvPhqahgbqkgbcwgbQxCzAJ
BgNVBAYTAlVTMQswCQYDVQQIEwJDTzERMA8GA1UEBxMIQnJpZ2h0b24xFTATBgNV
BAoTDG1lbW9yeW9yYWNsZTEVMBMGA1UECxMMbWVtb3J5b3JhY2xlMRgwFgYDVQQD
Ew9tZW1vcnlvcmFjbGUgQ0ExFTATBgNVBCkTDG1lbW9yeW9yYWNsZTEmMCQGCSqG
SIb3DQEJARYXZGFuaWVsLm5vbGFuZEBnbWFpbC5jb22CCQDzWLNglYMovzATBgNV
HSUEDDAKBggrBgEFBQcDATALBgNVHQ8EBAMCBaAwDQYJKoZIhvcNAQENBQADggIB
AEwHVsyNu0Lagk6ARwrOrlmCWnhZiVfyOl9dBMrLen/Uc1ypK/4Uzwvlxx5h5fGF
dQD/No/Rs5P1raKObwtrNY2S6ia4oGz7d/0LqQYW/6UMIWbqF/BkVboStMcVWujy
lxuFchxfkxjAycgKpzBmAqJHjJA6PmibZxu8inIBHEZy89LAPH3LqgpR1yVHoxm+
J4Gm0xZSff5X2C1oo3zElPk6XVqZ5fk6TbGfPvuq/xhiFtIqfYnhB2MLyyi6jMH5
VDKwNlIYqtOsBWpRLwPNE2AvoCcMHgkhgkj89VXsjKyDk6FmVsrX4smvGBZlaf3L
jM0CbxXuGXoAuSfG0L6G18seN1YaqIeTXdFaxZfanjUmOEoafO36SAlVAOWLfE3P
c94V8qoTAve37WYgZGqpDe6YgHgeDORnj1955s4JPF+scnoSAE1kPRwsZQDIG0uO
zSkxt1/kHSWTLIAeoTD5IL0Ipkk+R7u5yUrMcDnJKFXTaSZLufOrkQOgu+xRDC6t
VTgxNyuiV5K9U2WovRT3d+HVOmdW4s4F14vJMYE7kqe3fQXhxlK0HZHhHmwE7fei
Vpb9xO0Cjw+KeCIYhhBjiASVxaeaIftGrLLp+IcVm6/2qAd1MTvj3aSFk9ea1Rfa
H23wtC4ZIa3cbeFR8tknijpnH1kzTHbYm+8gBy1pqLaj
-----END CERTIFICATE-----
