Certificate:
    Data:
        Version: 3 (0x2)
        Serial Number: 2 (0x2)
    Signature Algorithm: sha512WithRSAEncryption
        Issuer: C=US, ST=CO, L=Brighton, O=memoryoracle, OU=memoryoracle, CN=memoryoracle CA/name=memoryoracle/emailAddress=daniel.noland@gmail.com
        Validity
            Not Before: Sep 14 20:48:33 2015 GMT
            Not After : Dec 13 20:48:33 2015 GMT
        Subject: C=US, ST=CO, L=Brighton, O=memoryoracle, OU=memoryoracle, CN=navi.dnoland.com/name=navi.dnoland.com/emailAddress=daniel.noland@gmail.com
        Subject Public Key Info:
            Public Key Algorithm: rsaEncryption
                Public-Key: (4096 bit)
                Modulus:
                    00:97:4b:34:6b:4a:0b:ea:7e:0d:5e:4f:53:fd:88:
                    48:b9:0f:f4:c4:9f:0c:17:ec:de:ba:b0:3d:6e:0f:
                    ee:b4:ee:d8:51:df:54:c8:ba:64:43:c6:e6:27:15:
                    54:82:3d:f9:e3:fc:da:4d:c4:a9:d6:51:39:67:39:
                    83:86:1a:31:4c:c0:5e:6d:2c:1d:56:a0:0d:62:f2:
                    13:ad:cc:72:c5:35:b9:e6:1a:7c:67:97:23:9c:e0:
                    85:a4:2a:0e:e5:b8:34:f4:96:ca:4e:4a:c3:84:11:
                    6a:59:8c:fb:29:56:48:3d:0d:16:c1:5b:77:db:a2:
                    ff:5b:ce:20:5b:39:31:88:27:d2:67:b6:eb:78:c6:
                    54:22:2a:ff:65:a9:34:92:bb:e2:cf:d7:d5:d5:08:
                    0e:03:63:86:e7:03:22:e5:ee:17:29:80:fc:60:ef:
                    d5:68:11:75:59:72:c3:68:17:17:97:93:e0:7e:06:
                    16:32:7a:00:25:48:e3:03:fe:51:90:87:78:06:e5:
                    23:be:c6:fb:2d:87:0f:27:29:4a:18:30:0d:3b:18:
                    dd:ec:46:a1:a0:b6:ff:b5:e6:84:c1:ac:b0:17:ca:
                    d9:74:8e:1a:5c:62:91:a6:18:53:fa:80:e8:7e:4e:
                    43:f9:65:06:a9:4f:d0:63:d6:00:0b:3a:8b:b6:1b:
                    d5:17:a8:4b:2d:69:1b:eb:19:a8:49:4e:bf:b2:9d:
                    d7:22:ae:59:8c:41:d3:df:6d:82:72:51:bf:b1:08:
                    7a:6d:aa:5f:f6:68:26:b0:44:a0:74:dd:10:1c:c9:
                    69:dd:83:fe:55:a6:98:0e:4a:8d:70:c6:54:72:5c:
                    de:26:8a:6a:09:9e:36:23:b5:a5:94:73:38:9a:78:
                    64:c8:18:10:10:3d:16:d8:1e:fe:81:61:f3:e8:52:
                    91:b8:31:d7:55:64:e0:2d:e1:20:0c:63:bf:97:06:
                    e9:f6:65:88:3f:cd:e0:03:a4:60:7e:a1:b9:ad:6f:
                    2d:e9:86:83:c7:66:62:1c:89:97:89:fb:92:40:30:
                    32:75:02:8c:77:fe:ba:86:c4:e8:b6:60:33:d9:c6:
                    28:74:0f:f2:2d:a1:a9:e5:66:68:71:0c:a7:16:74:
                    4e:15:ed:9a:dd:6e:1e:b7:a8:8f:c2:6c:da:68:ec:
                    66:64:ce:a7:52:db:95:ab:d1:3a:0b:68:5d:15:5a:
                    e6:ad:2d:72:d6:6b:53:c8:8f:11:1c:76:1b:cc:2f:
                    36:48:3c:4b:82:b6:93:4e:17:fb:25:7f:6a:65:da:
                    fd:d3:bb:cf:15:f2:c7:fa:1a:e3:98:a5:f5:e5:af:
                    7e:d4:5b:3d:a4:81:bc:b1:fa:de:dc:38:d0:85:ed:
                    7b:46:cd
                Exponent: 65537 (0x10001)
        X509v3 extensions:
            X509v3 Basic Constraints: 
                CA:FALSE
            Netscape Cert Type: 
                SSL Server
            Netscape Comment: 
                MemoryOracle Generated Server Certificate
            X509v3 Subject Key Identifier: 
                B2:62:1B:87:E9:F6:D5:AA:99:76:7B:77:D7:12:91:0C:12:FD:7D:3D
            X509v3 Authority Key Identifier: 
                keyid:62:F7:F4:32:30:15:56:EA:03:BE:BE:DA:37:6F:5D:9C:3B:CF:86:A6
                DirName:/C=US/ST=CO/L=Brighton/O=memoryoracle/OU=memoryoracle/CN=memoryoracle CA/name=memoryoracle/emailAddress=daniel.noland@gmail.com
                serial:F3:58:B3:60:95:83:28:BF

            X509v3 Extended Key Usage: 
                TLS Web Server Authentication
            X509v3 Key Usage: 
                Digital Signature, Key Encipherment
    Signature Algorithm: sha512WithRSAEncryption
         b7:6b:52:e5:11:f3:c5:bb:1d:d7:ad:25:f5:f3:2c:d5:fb:c8:
         db:5a:8c:b5:15:e1:e3:02:e7:d5:2c:ba:77:35:92:28:69:c8:
         1c:25:07:e5:32:43:8e:c7:c8:44:b3:86:cc:26:58:7a:5a:c4:
         4d:cc:de:3f:c6:89:43:a9:f7:55:c8:27:30:d5:40:68:78:fb:
         5d:07:85:ef:53:73:c2:cd:29:87:9c:dc:58:61:7c:e3:24:43:
         33:3f:ed:c0:6d:e2:fa:7f:33:f8:d7:5f:fa:a0:ff:18:21:de:
         e1:b7:41:b7:87:b2:2c:df:c6:93:aa:cc:bf:f8:a7:6a:2b:24:
         db:61:da:4a:52:7b:42:66:10:b4:4e:0a:ab:7d:d4:4c:20:b3:
         4a:0a:7c:a0:7e:5f:aa:ec:83:d0:18:84:b8:22:5f:63:d0:ed:
         2d:e4:7a:17:f9:d9:b2:e0:db:b4:e8:84:60:59:33:80:5b:bb:
         74:57:9d:57:74:10:6c:5a:fd:44:77:c8:e9:2a:ce:84:ec:f4:
         50:3c:32:01:5b:4c:eb:fe:bf:31:b0:62:c8:81:9e:b2:f7:1e:
         91:6e:21:26:f4:35:64:eb:61:28:a8:4e:39:37:df:a8:5c:e8:
         46:f5:26:36:63:6f:03:12:91:55:87:04:23:48:60:f3:f5:11:
         e4:f9:10:42:de:9e:cd:84:5c:da:d4:90:81:3d:de:20:54:dd:
         69:d5:09:11:69:df:ac:2a:2a:d5:ef:6c:c1:f2:c4:bd:9b:38:
         8f:51:4b:2c:64:f0:47:1f:90:36:c2:e6:f5:63:71:a4:9f:02:
         7d:19:f8:6f:8c:8f:f0:79:d6:cc:9b:19:60:a7:a1:25:45:0e:
         07:62:4e:2d:59:ac:46:8c:50:bc:c3:ce:48:5b:e3:15:ef:68:
         24:3a:c0:72:07:43:fc:c1:7a:a5:07:58:5e:98:b8:73:07:47:
         64:73:6d:d0:ee:f1:0d:8d:de:08:65:83:40:66:2d:05:20:b6:
         1d:bd:31:b4:6d:c1:e1:31:1f:fb:81:60:c9:a1:9a:6b:e0:97:
         2a:a2:19:d1:97:9c:9f:cd:ea:c6:ef:cf:4b:c4:5d:dd:9a:cd:
         e5:55:87:90:54:5f:4b:10:00:59:81:78:4b:10:a0:32:12:44:
         69:ef:28:6a:15:e8:4a:fb:4b:41:00:74:4e:6b:f6:ca:a6:87:
         f8:d8:ab:7f:fe:f5:9f:3a:8c:6d:7c:dc:9b:63:d3:1c:02:77:
         9f:7e:3b:33:72:b2:6f:df:f1:a9:39:62:93:f4:52:e5:da:a1:
         43:b7:11:1d:94:8d:81:93:b6:87:d3:03:75:85:46:71:02:cf:
         f3:f8:df:21:a3:01:82:b4
-----BEGIN CERTIFICATE-----
MIIHdTCCBV2gAwIBAgIBAjANBgkqhkiG9w0BAQ0FADCBtDELMAkGA1UEBhMCVVMx
CzAJBgNVBAgTAkNPMREwDwYDVQQHEwhCcmlnaHRvbjEVMBMGA1UEChMMbWVtb3J5
b3JhY2xlMRUwEwYDVQQLEwxtZW1vcnlvcmFjbGUxGDAWBgNVBAMTD21lbW9yeW9y
YWNsZSBDQTEVMBMGA1UEKRMMbWVtb3J5b3JhY2xlMSYwJAYJKoZIhvcNAQkBFhdk
YW5pZWwubm9sYW5kQGdtYWlsLmNvbTAeFw0xNTA5MTQyMDQ4MzNaFw0xNTEyMTMy
MDQ4MzNaMIG5MQswCQYDVQQGEwJVUzELMAkGA1UECBMCQ08xETAPBgNVBAcTCEJy
aWdodG9uMRUwEwYDVQQKEwxtZW1vcnlvcmFjbGUxFTATBgNVBAsTDG1lbW9yeW9y
YWNsZTEZMBcGA1UEAxMQbmF2aS5kbm9sYW5kLmNvbTEZMBcGA1UEKRMQbmF2aS5k
bm9sYW5kLmNvbTEmMCQGCSqGSIb3DQEJARYXZGFuaWVsLm5vbGFuZEBnbWFpbC5j
b20wggIiMA0GCSqGSIb3DQEBAQUAA4ICDwAwggIKAoICAQCXSzRrSgvqfg1eT1P9
iEi5D/TEnwwX7N66sD1uD+607thR31TIumRDxuYnFVSCPfnj/NpNxKnWUTlnOYOG
GjFMwF5tLB1WoA1i8hOtzHLFNbnmGnxnlyOc4IWkKg7luDT0lspOSsOEEWpZjPsp
Vkg9DRbBW3fbov9bziBbOTGIJ9Jntut4xlQiKv9lqTSSu+LP19XVCA4DY4bnAyLl
7hcpgPxg79VoEXVZcsNoFxeXk+B+BhYyegAlSOMD/lGQh3gG5SO+xvsthw8nKUoY
MA07GN3sRqGgtv+15oTBrLAXytl0jhpcYpGmGFP6gOh+TkP5ZQapT9Bj1gALOou2
G9UXqEstaRvrGahJTr+yndcirlmMQdPfbYJyUb+xCHptql/2aCawRKB03RAcyWnd
g/5VppgOSo1wxlRyXN4mimoJnjYjtaWUcziaeGTIGBAQPRbYHv6BYfPoUpG4MddV
ZOAt4SAMY7+XBun2ZYg/zeADpGB+obmtby3phoPHZmIciZeJ+5JAMDJ1Aox3/rqG
xOi2YDPZxih0D/ItoanlZmhxDKcWdE4V7Zrdbh63qI/CbNpo7GZkzqdS25Wr0ToL
aF0VWuatLXLWa1PIjxEcdhvMLzZIPEuCtpNOF/slf2pl2v3Tu88V8sf6GuOYpfXl
r37UWz2kgbyx+t7cONCF7XtGzQIDAQABo4IBiTCCAYUwCQYDVR0TBAIwADARBglg
hkgBhvhCAQEEBAMCBkAwOAYJYIZIAYb4QgENBCsWKU1lbW9yeU9yYWNsZSBHZW5l
cmF0ZWQgU2VydmVyIENlcnRpZmljYXRlMB0GA1UdDgQWBBSyYhuH6fbVqpl2e3fX
EpEMEv19PTCB6QYDVR0jBIHhMIHegBRi9/QyMBVW6gO+vto3b12cO8+GpqGBuqSB
tzCBtDELMAkGA1UEBhMCVVMxCzAJBgNVBAgTAkNPMREwDwYDVQQHEwhCcmlnaHRv
bjEVMBMGA1UEChMMbWVtb3J5b3JhY2xlMRUwEwYDVQQLEwxtZW1vcnlvcmFjbGUx
GDAWBgNVBAMTD21lbW9yeW9yYWNsZSBDQTEVMBMGA1UEKRMMbWVtb3J5b3JhY2xl
MSYwJAYJKoZIhvcNAQkBFhdkYW5pZWwubm9sYW5kQGdtYWlsLmNvbYIJAPNYs2CV
gyi/MBMGA1UdJQQMMAoGCCsGAQUFBwMBMAsGA1UdDwQEAwIFoDANBgkqhkiG9w0B
AQ0FAAOCAgEAt2tS5RHzxbsd160l9fMs1fvI21qMtRXh4wLn1Sy6dzWSKGnIHCUH
5TJDjsfIRLOGzCZYelrETczeP8aJQ6n3VcgnMNVAaHj7XQeF71Nzws0ph5zcWGF8
4yRDMz/twG3i+n8z+Ndf+qD/GCHe4bdBt4eyLN/Gk6rMv/inaisk22HaSlJ7QmYQ
tE4Kq33UTCCzSgp8oH5fquyD0BiEuCJfY9DtLeR6F/nZsuDbtOiEYFkzgFu7dFed
V3QQbFr9RHfI6SrOhOz0UDwyAVtM6/6/MbBiyIGesvcekW4hJvQ1ZOthKKhOOTff
qFzoRvUmNmNvAxKRVYcEI0hg8/UR5PkQQt6ezYRc2tSQgT3eIFTdadUJEWnfrCoq
1e9swfLEvZs4j1FLLGTwRx+QNsLm9WNxpJ8CfRn4b4yP8HnWzJsZYKehJUUOB2JO
LVmsRoxQvMPOSFvjFe9oJDrAcgdD/MF6pQdYXpi4cwdHZHNt0O7xDY3eCGWDQGYt
BSC2Hb0xtG3B4TEf+4FgyaGaa+CXKqIZ0Zecn83qxu/PS8Rd3ZrN5VWHkFRfSxAA
WYF4SxCgMhJEae8oahXoSvtLQQB0Tmv2yqaH+Nirf/71nzqMbXzcm2PTHAJ3n347
M3Kyb9/xqTlik/RS5dqhQ7cRHZSNgZO2h9MDdYVGcQLP8/jfIaMBgrQ=
-----END CERTIFICATE-----
