Certificate:
    Data:
        Version: 3 (0x2)
        Serial Number: 2 (0x2)
    Signature Algorithm: ecdsa-with-SHA512
        Issuer: CN=MemoryOracle CA
        Validity
            Not Before: Sep 21 02:14:48 2015 GMT
            Not After : Dec 20 02:14:48 2015 GMT
        Subject: CN=localhost
        Subject Public Key Info:
            Public Key Algorithm: id-ecPublicKey
                Public-Key: (384 bit)
                pub: 
                    04:99:7f:db:76:33:39:35:d1:00:c0:21:57:03:76:
                    bb:da:7b:8d:23:39:75:bb:9c:bd:ac:4f:f5:7e:99:
                    2a:30:33:e4:71:a1:b4:15:06:4d:3b:fd:0f:91:72:
                    f8:1f:b9:d7:85:5e:12:f8:29:03:bf:4a:a7:8d:65:
                    a3:52:14:01:2c:5b:50:cd:d8:f7:7f:79:df:df:79:
                    e0:8b:73:17:f7:32:ff:a3:ae:00:cb:84:2b:75:30:
                    6b:7d:e7:eb:0a:18:c5
                ASN1 OID: secp384r1
                NIST CURVE: P-384
        X509v3 extensions:
            X509v3 Basic Constraints: 
                CA:FALSE
            X509v3 Subject Key Identifier: 
                BB:75:90:63:2C:3E:1D:D8:CF:F7:A7:DD:BA:30:5A:6D:BB:47:75:E7
            X509v3 Authority Key Identifier: 
                keyid:C7:1E:B2:F5:9A:2D:BE:4E:36:ED:77:76:D4:FA:7E:7F:C7:88:47:80
                DirName:/CN=MemoryOracle CA
                serial:F7:2F:D8:AA:93:39:21:8E

            X509v3 Extended Key Usage: 
                TLS Web Client Authentication
            X509v3 Key Usage: 
                Digital Signature
    Signature Algorithm: ecdsa-with-SHA512
         30:65:02:30:50:e2:31:92:39:aa:15:9d:d6:51:9c:ee:35:91:
         ec:a8:fa:e1:bd:39:37:a4:a9:45:fb:b7:c1:ac:b3:54:7d:bd:
         22:f7:4b:47:03:d5:1e:c0:fe:cc:8d:d6:ea:c1:c6:ff:02:31:
         00:ee:1d:2c:fe:f1:a0:6d:4b:ea:d5:10:80:42:cb:00:47:dd:
         86:a3:09:58:73:59:09:a3:38:eb:7a:8a:6d:ae:f3:4a:80:c6:
         09:cd:66:cf:09:4e:ed:7d:c4:8f:52:8d:06
-----BEGIN CERTIFICATE-----
MIIB9jCCAXygAwIBAgIBAjAKBggqhkjOPQQDBDAaMRgwFgYDVQQDDA9NZW1vcnlP
cmFjbGUgQ0EwHhcNMTUwOTIxMDIxNDQ4WhcNMTUxMjIwMDIxNDQ4WjAUMRIwEAYD
VQQDDAlsb2NhbGhvc3QwdjAQBgcqhkjOPQIBBgUrgQQAIgNiAASZf9t2Mzk10QDA
IVcDdrvae40jOXW7nL2sT/V+mSowM+RxobQVBk07/Q+RcvgfudeFXhL4KQO/SqeN
ZaNSFAEsW1DN2Pd/ed/feeCLcxf3Mv+jrgDLhCt1MGt95+sKGMWjgZswgZgwCQYD
VR0TBAIwADAdBgNVHQ4EFgQUu3WQYyw+HdjP96fdujBabbtHdecwSgYDVR0jBEMw
QYAUxx6y9Zotvk427Xd21Pp+f8eIR4ChHqQcMBoxGDAWBgNVBAMMD01lbW9yeU9y
YWNsZSBDQYIJAPcv2KqTOSGOMBMGA1UdJQQMMAoGCCsGAQUFBwMCMAsGA1UdDwQE
AwIHgDAKBggqhkjOPQQDBANoADBlAjBQ4jGSOaoVndZRnO41keyo+uG9OTekqUX7
t8Gss1R9vSL3S0cD1R7A/syN1urBxv8CMQDuHSz+8aBtS+rVEIBCywBH3YajCVhz
WQmjOOt6im2u80qAxgnNZs8JTu19xI9SjQY=
-----END CERTIFICATE-----
