Certificate:
    Data:
        Version: 3 (0x2)
        Serial Number: 2 (0x2)
    Signature Algorithm: ecdsa-with-SHA512
        Issuer: CN=memoryoracle ca
        Validity
            Not Before: Sep 14 22:55:37 2015 GMT
            Not After : Dec 13 22:55:37 2015 GMT
        Subject: CN=localhost
        Subject Public Key Info:
            Public Key Algorithm: id-ecPublicKey
                Public-Key: (570 bit)
                pub: 
                    04:04:11:39:3a:c1:5f:36:59:e2:9c:01:8a:74:24:
                    02:d8:4b:1c:4a:57:7c:b4:2e:cf:c9:b6:87:52:47:
                    f0:df:a7:6d:3b:0e:ab:47:ca:6f:b3:7d:ad:01:e2:
                    47:38:25:09:2f:37:a4:42:2e:4e:a0:33:9a:4e:b4:
                    6e:73:0e:3e:53:c5:19:ca:48:1b:ca:07:92:03:6e:
                    cb:9a:65:54:64:89:1e:6e:07:b9:a7:88:56:e0:24:
                    c9:5e:25:ae:fe:12:6d:ab:90:1f:a8:77:5a:c7:95:
                    cd:ff:37:76:08:ff:cc:34:fc:21:28:db:7e:f1:6d:
                    4e:c3:45:f5:68:ea:06:59:6f:89:d8:33:b2:6f:30:
                    7d:e3:c0:30:37:e3:d9:09:ff:64
                ASN1 OID: sect571k1
                NIST CURVE: K-571
        X509v3 extensions:
            X509v3 Basic Constraints: 
                CA:FALSE
            X509v3 Subject Key Identifier: 
                E1:F6:8D:92:5E:5A:68:3B:41:37:AC:D5:7A:68:7F:2C:2A:F1:94:BB
            X509v3 Authority Key Identifier: 
                keyid:67:38:0F:24:9A:AE:D1:11:8A:62:0B:86:3F:E5:D8:DA:94:69:D5:B8
                DirName:/CN=memoryoracle ca
                serial:CC:03:17:6F:E7:EC:37:19

            X509v3 Extended Key Usage: 
                TLS Web Client Authentication
            X509v3 Key Usage: 
                Digital Signature
    Signature Algorithm: ecdsa-with-SHA512
         30:81:94:02:48:00:db:04:e9:da:60:32:ec:89:bb:d1:d4:ba:
         a3:d0:dd:2a:9a:57:65:d4:fb:28:0b:40:c2:0b:07:fe:f4:4c:
         e7:cf:13:5f:48:ac:be:2c:20:e2:b9:30:15:c3:70:3f:8f:f4:
         9e:8a:a8:09:2b:52:db:f7:e4:9d:d1:79:4f:8c:1d:53:61:48:
         77:2b:58:f9:9d:02:48:01:20:c5:77:0c:2f:9a:d1:a0:10:40:
         26:45:35:fa:fd:86:40:c7:01:70:8c:ba:e0:36:ad:89:ff:c1:
         0b:90:7f:42:bd:f7:58:0b:e7:a6:fb:d6:d7:38:e8:82:cf:85:
         56:33:cd:9a:24:02:0f:b6:26:6e:14:36:04:0a:65:7f:e7:80:
         c1:96:16:fb:48:db:ed
-----BEGIN CERTIFICATE-----
MIICWTCCAa6gAwIBAgIBAjAKBggqhkjOPQQDBDAaMRgwFgYDVQQDDA9tZW1vcnlv
cmFjbGUgY2EwHhcNMTUwOTE0MjI1NTM3WhcNMTUxMjEzMjI1NTM3WjAUMRIwEAYD
VQQDDAlsb2NhbGhvc3QwgacwEAYHKoZIzj0CAQYFK4EEACYDgZIABAQROTrBXzZZ
4pwBinQkAthLHEpXfLQuz8m2h1JH8N+nbTsOq0fKb7N9rQHiRzglCS83pEIuTqAz
mk60bnMOPlPFGcpIG8oHkgNuy5plVGSJHm4HuaeIVuAkyV4lrv4SbauQH6h3WseV
zf83dgj/zDT8ISjbfvFtTsNF9WjqBllvidgzsm8wfePAMDfj2Qn/ZKOBmzCBmDAJ
BgNVHRMEAjAAMB0GA1UdDgQWBBTh9o2SXlpoO0E3rNV6aH8sKvGUuzBKBgNVHSME
QzBBgBRnOA8kmq7REYpiC4Y/5djalGnVuKEepBwwGjEYMBYGA1UEAwwPbWVtb3J5
b3JhY2xlIGNhggkAzAMXb+fsNxkwEwYDVR0lBAwwCgYIKwYBBQUHAwIwCwYDVR0P
BAQDAgeAMAoGCCqGSM49BAMEA4GYADCBlAJIANsE6dpgMuyJu9HUuqPQ3SqaV2XU
+ygLQMILB/70TOfPE19IrL4sIOK5MBXDcD+P9J6KqAkrUtv35J3ReU+MHVNhSHcr
WPmdAkgBIMV3DC+a0aAQQCZFNfr9hkDHAXCMuuA2rYn/wQuQf0K991gL56b71tc4
6ILPhVYzzZokAg+2Jm4UNgQKZX/ngMGWFvtI2+0=
-----END CERTIFICATE-----
