Certificate:
    Data:
        Version: 3 (0x2)
        Serial Number: 1 (0x1)
    Signature Algorithm: ecdsa-with-SHA512
        Issuer: CN=MemoryOracle Root CA
        Validity
            Not Before: Sep 15 16:54:27 2015 GMT
            Not After : Dec 14 16:54:27 2015 GMT
        Subject: CN=localhost
        Subject Public Key Info:
            Public Key Algorithm: id-ecPublicKey
                Public-Key: (384 bit)
                pub: 
                    04:ce:fa:6d:23:84:c3:51:fe:43:d9:e3:11:28:27:
                    06:bf:bc:ef:c1:a5:e5:1c:45:c0:53:ee:9c:f1:10:
                    a8:27:68:b6:83:8e:ca:66:ac:2e:71:26:60:1b:d6:
                    b8:95:45:6a:33:9c:81:88:39:31:87:f6:54:1c:16:
                    bb:5a:24:28:4e:3b:cf:81:ea:1b:ed:a5:8b:c1:78:
                    47:0c:ab:00:9d:a1:2c:be:a1:17:8f:8b:23:15:89:
                    b2:88:66:6d:bf:69:ae
                ASN1 OID: secp384r1
                NIST CURVE: P-384
        X509v3 extensions:
            X509v3 Basic Constraints: 
                CA:FALSE
            X509v3 Subject Key Identifier: 
                39:76:D5:35:4F:0C:C0:69:F2:76:DC:17:29:0A:48:C2:E3:B5:84:6F
            X509v3 Authority Key Identifier: 
                keyid:5E:F3:94:72:4D:8D:85:CE:EF:20:9A:DB:94:3A:71:77:26:14:04:88
                DirName:/CN=MemoryOracle Root CA
                serial:A9:B0:DD:44:96:E0:1A:EC

            X509v3 Extended Key Usage: 
                TLS Web Client Authentication
            X509v3 Key Usage: 
                Digital Signature
    Signature Algorithm: ecdsa-with-SHA512
         30:65:02:31:00:9c:2a:9e:0d:ff:a8:5e:dc:bd:42:6e:2b:c1:
         4b:69:a9:a2:4e:d9:24:44:df:ff:de:94:8b:13:c3:52:af:47:
         29:45:0c:7c:d6:eb:48:29:92:f6:52:ae:c2:63:a4:04:c1:02:
         30:0d:6e:09:b4:61:37:2a:f4:32:35:d7:f3:a0:82:3c:f3:47:
         a9:a5:e2:8d:77:08:43:f5:bb:ed:a4:8b:b2:1f:61:16:b1:fd:
         cc:e2:b6:c0:7e:46:f9:6a:85:f7:c5:fe:6b
-----BEGIN CERTIFICATE-----
MIICADCCAYagAwIBAgIBATAKBggqhkjOPQQDBDAfMR0wGwYDVQQDDBRNZW1vcnlP
cmFjbGUgUm9vdCBDQTAeFw0xNTA5MTUxNjU0MjdaFw0xNTEyMTQxNjU0MjdaMBQx
EjAQBgNVBAMMCWxvY2FsaG9zdDB2MBAGByqGSM49AgEGBSuBBAAiA2IABM76bSOE
w1H+Q9njESgnBr+878Gl5RxFwFPunPEQqCdotoOOymasLnEmYBvWuJVFajOcgYg5
MYf2VBwWu1okKE47z4HqG+2li8F4RwyrAJ2hLL6hF4+LIxWJsohmbb9prqOBoDCB
nTAJBgNVHRMEAjAAMB0GA1UdDgQWBBQ5dtU1TwzAafJ23BcpCkjC47WEbzBPBgNV
HSMESDBGgBRe85RyTY2Fzu8gmtuUOnF3JhQEiKEjpCEwHzEdMBsGA1UEAwwUTWVt
b3J5T3JhY2xlIFJvb3QgQ0GCCQCpsN1EluAa7DATBgNVHSUEDDAKBggrBgEFBQcD
AjALBgNVHQ8EBAMCB4AwCgYIKoZIzj0EAwQDaAAwZQIxAJwqng3/qF7cvUJuK8FL
aamiTtkkRN//3pSLE8NSr0cpRQx81utIKZL2Uq7CY6QEwQIwDW4JtGE3KvQyNdfz
oII880eppeKNdwhD9bvtpIuyH2EWsf3M4rbAfkb5aoX3xf5r
-----END CERTIFICATE-----
