Certificate:
    Data:
        Version: 3 (0x2)
        Serial Number: 2 (0x2)
    Signature Algorithm: ecdsa-with-SHA512
        Issuer: CN=MemoryOracle Root CA
        Validity
            Not Before: Sep 15 16:54:41 2015 GMT
            Not After : Dec 14 16:54:41 2015 GMT
        Subject: CN=navi.dnoland.com
        Subject Public Key Info:
            Public Key Algorithm: id-ecPublicKey
                Public-Key: (384 bit)
                pub: 
                    04:f6:78:c0:83:68:b3:aa:34:d5:5d:dc:b7:a2:f5:
                    eb:3f:d7:73:43:13:34:be:a2:fa:0e:99:b4:ce:50:
                    54:0a:d7:6d:c2:34:f1:ce:ab:9c:49:e4:51:8b:ee:
                    a0:7d:17:73:ea:9d:7a:3e:31:0c:bf:20:12:90:37:
                    0e:c8:bb:ce:17:9c:57:d1:bf:22:11:9e:29:f2:fd:
                    bb:85:8b:42:44:40:e7:45:90:87:e5:5b:fc:2e:11:
                    06:bb:fc:00:90:3c:b1
                ASN1 OID: secp384r1
                NIST CURVE: P-384
        X509v3 extensions:
            X509v3 Basic Constraints: 
                CA:FALSE
            X509v3 Subject Key Identifier: 
                20:A6:F1:8D:49:FA:C2:03:DA:15:EC:D7:5E:B8:A6:28:D9:5E:1B:E7
            X509v3 Authority Key Identifier: 
                keyid:5E:F3:94:72:4D:8D:85:CE:EF:20:9A:DB:94:3A:71:77:26:14:04:88
                DirName:/CN=MemoryOracle Root CA
                serial:A9:B0:DD:44:96:E0:1A:EC

            X509v3 Extended Key Usage: 
                TLS Web Server Authentication
            X509v3 Key Usage: 
                Digital Signature, Key Encipherment
    Signature Algorithm: ecdsa-with-SHA512
         30:65:02:31:00:ab:ed:34:fe:31:52:b6:16:bb:49:3f:32:10:
         86:16:d2:ff:30:93:21:b8:9a:ac:f3:33:6c:b4:62:0e:22:82:
         58:e9:a6:0b:c4:fb:02:e8:e1:e8:b9:96:66:ab:48:90:07:02:
         30:19:16:06:c2:8e:0c:df:9e:04:ac:75:9a:6c:28:ff:3b:7b:
         d4:9e:c3:86:b2:17:e1:3f:13:cd:0f:8b:02:94:54:cb:3f:de:
         a0:3c:f8:fa:ef:21:7a:44:04:ac:c3:0e:8d
-----BEGIN CERTIFICATE-----
MIICBzCCAY2gAwIBAgIBAjAKBggqhkjOPQQDBDAfMR0wGwYDVQQDDBRNZW1vcnlP
cmFjbGUgUm9vdCBDQTAeFw0xNTA5MTUxNjU0NDFaFw0xNTEyMTQxNjU0NDFaMBsx
GTAXBgNVBAMMEG5hdmkuZG5vbGFuZC5jb20wdjAQBgcqhkjOPQIBBgUrgQQAIgNi
AAT2eMCDaLOqNNVd3Lei9es/13NDEzS+ovoOmbTOUFQK123CNPHOq5xJ5FGL7qB9
F3PqnXo+MQy/IBKQNw7Iu84XnFfRvyIRniny/buFi0JEQOdFkIflW/wuEQa7/ACQ
PLGjgaAwgZ0wCQYDVR0TBAIwADAdBgNVHQ4EFgQUIKbxjUn6wgPaFezXXrimKNle
G+cwTwYDVR0jBEgwRoAUXvOUck2Nhc7vIJrblDpxdyYUBIihI6QhMB8xHTAbBgNV
BAMMFE1lbW9yeU9yYWNsZSBSb290IENBggkAqbDdRJbgGuwwEwYDVR0lBAwwCgYI
KwYBBQUHAwEwCwYDVR0PBAQDAgWgMAoGCCqGSM49BAMEA2gAMGUCMQCr7TT+MVK2
FrtJPzIQhhbS/zCTIbiarPMzbLRiDiKCWOmmC8T7Aujh6LmWZqtIkAcCMBkWBsKO
DN+eBKx1mmwo/zt71J7DhrIX4T8TzQ+LApRUyz/eoDz4+u8hekQErMMOjQ==
-----END CERTIFICATE-----
