Certificate:
    Data:
        Version: 3 (0x2)
        Serial Number: 1 (0x1)
    Signature Algorithm: ecdsa-with-SHA512
        Issuer: CN=memoryoracle.com
        Validity
            Not Before: Sep 14 21:19:19 2015 GMT
            Not After : Dec 13 21:19:19 2015 GMT
        Subject: CN=navi.dnoland.com
        Subject Public Key Info:
            Public Key Algorithm: id-ecPublicKey
                Public-Key: (512 bit)
                pub: 
                    04:92:7f:b6:45:72:c0:9c:51:24:1b:ea:ad:39:a1:
                    32:f6:0c:c5:cd:ee:0d:1b:0c:82:50:ab:ac:0c:7e:
                    97:14:0c:6d:ab:8c:46:07:1c:6a:24:4b:5f:07:b7:
                    84:ae:39:0b:a8:de:06:50:be:f8:ce:70:78:bb:19:
                    1c:26:01:56:41:59:7c:d7:62:58:d8:b0:f1:39:85:
                    bc:bc:87:58:b9:ce:ef:35:6e:d8:8e:80:74:82:76:
                    8d:93:74:f6:2e:c6:25:b3:fd:e6:47:c1:07:46:22:
                    b2:84:d4:2d:32:65:9c:8e:1e:50:4b:e6:8d:40:22:
                    e3:a4:57:33:19:32:d8:bb:f2
                ASN1 OID: brainpoolP512t1
        X509v3 extensions:
            X509v3 Basic Constraints: 
                CA:FALSE
            X509v3 Subject Key Identifier: 
                F7:F8:38:0E:66:5C:A7:AE:61:5E:2E:C8:AD:A2:9B:44:9A:6A:EB:BF
            X509v3 Authority Key Identifier: 
                keyid:DF:FF:2B:4B:6E:DB:4A:18:E8:C8:99:21:23:15:DC:1F:15:07:1A:71
                DirName:/CN=memoryoracle.com
                serial:F8:99:FA:4F:AC:DD:4A:8E

            X509v3 Extended Key Usage: 
                TLS Web Server Authentication
            X509v3 Key Usage: 
                Digital Signature, Key Encipherment
    Signature Algorithm: ecdsa-with-SHA512
         30:81:85:02:40:03:b6:63:4e:43:27:87:d0:76:3f:38:c9:3a:
         14:27:eb:16:0a:c0:5c:86:fd:d7:5c:d2:be:71:f6:69:3a:7d:
         5e:ae:25:0f:2b:5c:2b:c1:77:61:32:be:41:2c:6d:a9:5d:1e:
         ca:44:72:fa:d3:b7:a3:de:f1:d9:55:83:43:46:72:02:41:00:
         9e:bd:fb:84:fa:4d:15:db:22:aa:20:99:4b:7b:48:66:0e:65:
         eb:37:66:fa:b5:eb:f5:a4:95:08:fc:7c:7b:67:75:73:47:86:
         6e:7e:70:8a:ba:4d:32:7f:19:4c:78:06:c5:d0:ae:32:12:a6:
         fb:fe:06:a0:19:65:ae:01:6a:6c
-----BEGIN CERTIFICATE-----
MIICRzCCAaugAwIBAgIBATAKBggqhkjOPQQDBDAbMRkwFwYDVQQDDBBtZW1vcnlv
cmFjbGUuY29tMB4XDTE1MDkxNDIxMTkxOVoXDTE1MTIxMzIxMTkxOVowGzEZMBcG
A1UEAwwQbmF2aS5kbm9sYW5kLmNvbTCBmzAUBgcqhkjOPQIBBgkrJAMDAggBAQ4D
gYIABJJ/tkVywJxRJBvqrTmhMvYMxc3uDRsMglCrrAx+lxQMbauMRgccaiRLXwe3
hK45C6jeBlC++M5weLsZHCYBVkFZfNdiWNiw8TmFvLyHWLnO7zVu2I6AdIJ2jZN0
9i7GJbP95kfBB0YisoTULTJlnI4eUEvmjUAi46RXMxky2Lvyo4GcMIGZMAkGA1Ud
EwQCMAAwHQYDVR0OBBYEFPf4OA5mXKeuYV4uyK2im0Saauu/MEsGA1UdIwREMEKA
FN//K0tu20oY6MiZISMV3B8VBxpxoR+kHTAbMRkwFwYDVQQDDBBtZW1vcnlvcmFj
bGUuY29tggkA+Jn6T6zdSo4wEwYDVR0lBAwwCgYIKwYBBQUHAwEwCwYDVR0PBAQD
AgWgMAoGCCqGSM49BAMEA4GJADCBhQJAA7ZjTkMnh9B2PzjJOhQn6xYKwFyG/ddc
0r5x9mk6fV6uJQ8rXCvBd2EyvkEsbaldHspEcvrTt6Pe8dlVg0NGcgJBAJ69+4T6
TRXbIqogmUt7SGYOZes3Zvq16/WklQj8fHtndXNHhm5+cIq6TTJ/GUx4BsXQrjIS
pvv+BqAZZa4Bamw=
-----END CERTIFICATE-----
-----BEGIN CERTIFICATE-----
MIICPTCCAaGgAwIBAgIJAPiZ+k+s3UqOMAoGCCqGSM49BAMEMBsxGTAXBgNVBAMM
EG1lbW9yeW9yYWNsZS5jb20wHhcNMTUwOTE0MjExNzIxWhcNMTYwOTEzMjExNzIx
WjAbMRkwFwYDVQQDDBBtZW1vcnlvcmFjbGUuY29tMIGbMBQGByqGSM49AgEGCSsk
AwMCCAEBDgOBggAEAWjUIClqclSzBzHm5JI3Ke6Yx6bcwQizx5Ili8kr8jF880OS
QrMxthy+mvNIP2xyUAL3SH9m/kHHs8FBTbOdCi0HA8TgeBo7Y9L+tnFSQWxtS0j6
PreooIyWQ2ZCOrqOKUHXsN/Aq1+7I4NxjEGO2NH8Bupv9lner0ClR5U5ojWjgYow
gYcwHQYDVR0OBBYEFN//K0tu20oY6MiZISMV3B8VBxpxMEsGA1UdIwREMEKAFN//
K0tu20oY6MiZISMV3B8VBxpxoR+kHTAbMRkwFwYDVQQDDBBtZW1vcnlvcmFjbGUu
Y29tggkA+Jn6T6zdSo4wDAYDVR0TBAUwAwEB/zALBgNVHQ8EBAMCAQYwCgYIKoZI
zj0EAwQDgYkAMIGFAkEAqdlDX1k5s9/txK/UzokRPUtW7gKl8RaUyZY/lEGiBiQr
+GPHr4mwvJKxrZ8muKtXtyliw5loIFv2OJz8CBpPpwJAcvogoaudH9hn1zKNfkBb
NFNGhPgpsZ9MSmj7SMfEgSwrUNnJtPwFD3JS6z8kq4wJu/d7zGNKGZBrOM4apA65
7A==
-----END CERTIFICATE-----
