Certificate:
    Data:
        Version: 3 (0x2)
        Serial Number: 1 (0x1)
    Signature Algorithm: ecdsa-with-SHA512
        Issuer: CN=memoryoracle ca
        Validity
            Not Before: Sep 14 22:47:37 2015 GMT
            Not After : Dec 13 22:47:37 2015 GMT
        Subject: CN=navi.dnoland.com
        Subject Public Key Info:
            Public Key Algorithm: id-ecPublicKey
                Public-Key: (570 bit)
                pub: 
                    04:00:e6:e1:2f:35:ed:0a:13:72:3d:d9:41:24:24:
                    72:27:ed:ed:d0:9e:8f:d6:c7:ad:d0:8b:17:8a:a9:
                    c6:fa:cf:96:32:20:94:b3:f4:ce:44:fc:0b:05:34:
                    eb:7f:70:2b:b1:3a:57:ed:90:d5:b1:9c:72:70:9d:
                    6a:e2:e4:64:0f:b8:9a:7b:74:e2:91:dd:81:00:97:
                    23:52:85:75:e9:54:e6:eb:b3:3e:37:81:2e:36:cd:
                    ab:87:63:dc:89:b9:b5:4b:1c:8d:21:32:2d:9c:df:
                    9b:7f:ca:60:03:82:f4:e4:b7:48:18:dc:e3:75:2e:
                    14:01:15:c8:9c:bf:df:7a:c8:a3:72:01:0a:fb:57:
                    9c:ff:f5:96:fe:51:16:65:18:49
                ASN1 OID: sect571k1
                NIST CURVE: K-571
        X509v3 extensions:
            X509v3 Basic Constraints: 
                CA:FALSE
            X509v3 Subject Key Identifier: 
                6F:19:FE:AF:28:DF:19:64:92:EB:15:6F:46:54:10:EC:1A:E9:59:73
            X509v3 Authority Key Identifier: 
                keyid:67:38:0F:24:9A:AE:D1:11:8A:62:0B:86:3F:E5:D8:DA:94:69:D5:B8
                DirName:/CN=memoryoracle ca
                serial:CC:03:17:6F:E7:EC:37:19

            X509v3 Extended Key Usage: 
                TLS Web Server Authentication
            X509v3 Key Usage: 
                Digital Signature, Key Encipherment
    Signature Algorithm: ecdsa-with-SHA512
         30:81:94:02:48:00:d6:37:ec:2c:0e:4b:93:43:e2:86:d8:9e:
         c7:83:86:ea:c2:11:61:e0:d2:06:84:f9:b8:4d:12:1c:49:dd:
         5f:aa:43:73:81:d9:01:e6:2c:21:d7:c1:15:f7:d7:fd:ef:23:
         8d:cc:17:82:d6:19:88:17:9f:5d:61:8b:4f:d5:10:e7:fe:4b:
         9e:24:b8:82:b5:02:48:01:0e:39:96:5f:c6:48:61:9f:ba:ae:
         99:28:da:02:fe:00:2f:22:64:48:39:e5:c6:44:24:4d:3f:88:
         69:43:95:b8:61:c0:c5:eb:46:54:78:0f:25:a2:12:9e:d2:b6:
         d2:59:55:ac:c1:d5:e0:01:8a:7c:6a:8d:ad:10:07:87:03:7a:
         51:65:f7:32:29:93:d5
-----BEGIN CERTIFICATE-----
MIICYDCCAbWgAwIBAgIBATAKBggqhkjOPQQDBDAaMRgwFgYDVQQDDA9tZW1vcnlv
cmFjbGUgY2EwHhcNMTUwOTE0MjI0NzM3WhcNMTUxMjEzMjI0NzM3WjAbMRkwFwYD
VQQDDBBuYXZpLmRub2xhbmQuY29tMIGnMBAGByqGSM49AgEGBSuBBAAmA4GSAAQA
5uEvNe0KE3I92UEkJHIn7e3Qno/Wx63QixeKqcb6z5YyIJSz9M5E/AsFNOt/cCux
OlftkNWxnHJwnWri5GQPuJp7dOKR3YEAlyNShXXpVObrsz43gS42zauHY9yJubVL
HI0hMi2c35t/ymADgvTkt0gY3ON1LhQBFcicv996yKNyAQr7V5z/9Zb+URZlGEmj
gZswgZgwCQYDVR0TBAIwADAdBgNVHQ4EFgQUbxn+ryjfGWSS6xVvRlQQ7BrpWXMw
SgYDVR0jBEMwQYAUZzgPJJqu0RGKYguGP+XY2pRp1bihHqQcMBoxGDAWBgNVBAMM
D21lbW9yeW9yYWNsZSBjYYIJAMwDF2/n7DcZMBMGA1UdJQQMMAoGCCsGAQUFBwMB
MAsGA1UdDwQEAwIFoDAKBggqhkjOPQQDBAOBmAAwgZQCSADWN+wsDkuTQ+KG2J7H
g4bqwhFh4NIGhPm4TRIcSd1fqkNzgdkB5iwh18EV99f97yONzBeC1hmIF59dYYtP
1RDn/kueJLiCtQJIAQ45ll/GSGGfuq6ZKNoC/gAvImRIOeXGRCRNP4hpQ5W4YcDF
60ZUeA8lohKe0rbSWVWswdXgAYp8ao2tEAeHA3pRZfcyKZPV
-----END CERTIFICATE-----
